target datalayout = "e-m:e-p270:32:32-p271:32:32-p272:64:64-i64:64-i128:128-f80:128-n8:16:32:64-S128"
target triple = "x86_64-pc-linux-gnu"

; Function Attrs: nounwind uwtable
define hidden signext i8 @lxb_encoding_encode_utf_8_single(ptr noundef %0, ptr noundef %1, ptr noundef %2, i32 noundef %3) #0 {
  %5 = alloca i8, align 1
  %6 = alloca ptr, align 8
  %7 = alloca ptr, align 8
  %8 = alloca ptr, align 8
  %9 = alloca i32, align 4
  store ptr %0, ptr %6, align 8
  store ptr %1, ptr %7, align 8
  store ptr %2, ptr %8, align 8
  store i32 %3, ptr %9, align 4
  %10 = load i32, ptr %9, align 4
  %11 = icmp ult i32 %10, 128
  br i1 %11, label %12, label %18

12:                                               ; preds = %4
  %13 = load i32, ptr %9, align 4
  %14 = trunc i32 %13 to i8
  %15 = load ptr, ptr %7, align 8
  %16 = load ptr, ptr %15, align 8
  %17 = getelementptr inbounds i8, ptr %16, i32 1
  store ptr %17, ptr %15, align 8
  store i8 %14, ptr %16, align 1
  store i8 1, ptr %5, align 1
  br label %118

18:                                               ; preds = %4
  %19 = load i32, ptr %9, align 4
  %20 = icmp ult i32 %19, 2048
  br i1 %20, label %21, label %43

21:                                               ; preds = %18
  %22 = load ptr, ptr %7, align 8
  %23 = load ptr, ptr %22, align 8
  %24 = getelementptr inbounds i8, ptr %23, i64 2
  %25 = load ptr, ptr %8, align 8
  %26 = icmp ugt ptr %24, %25
  br i1 %26, label %27, label %28

27:                                               ; preds = %21
  store i8 -2, ptr %5, align 1
  br label %118

28:                                               ; preds = %21
  %29 = load i32, ptr %9, align 4
  %30 = lshr i32 %29, 6
  %31 = or i32 192, %30
  %32 = trunc i32 %31 to i8
  %33 = load ptr, ptr %7, align 8
  %34 = load ptr, ptr %33, align 8
  %35 = getelementptr inbounds i8, ptr %34, i32 1
  store ptr %35, ptr %33, align 8
  store i8 %32, ptr %34, align 1
  %36 = load i32, ptr %9, align 4
  %37 = and i32 %36, 63
  %38 = or i32 128, %37
  %39 = trunc i32 %38 to i8
  %40 = load ptr, ptr %7, align 8
  %41 = load ptr, ptr %40, align 8
  %42 = getelementptr inbounds i8, ptr %41, i32 1
  store ptr %42, ptr %40, align 8
  store i8 %39, ptr %41, align 1
  store i8 2, ptr %5, align 1
  br label %118

43:                                               ; preds = %18
  %44 = load i32, ptr %9, align 4
  %45 = icmp ult i32 %44, 65536
  br i1 %45, label %46, label %76

46:                                               ; preds = %43
  %47 = load ptr, ptr %7, align 8
  %48 = load ptr, ptr %47, align 8
  %49 = getelementptr inbounds i8, ptr %48, i64 3
  %50 = load ptr, ptr %8, align 8
  %51 = icmp ugt ptr %49, %50
  br i1 %51, label %52, label %53

52:                                               ; preds = %46
  store i8 -2, ptr %5, align 1
  br label %118

53:                                               ; preds = %46
  %54 = load i32, ptr %9, align 4
  %55 = lshr i32 %54, 12
  %56 = or i32 224, %55
  %57 = trunc i32 %56 to i8
  %58 = load ptr, ptr %7, align 8
  %59 = load ptr, ptr %58, align 8
  %60 = getelementptr inbounds i8, ptr %59, i32 1
  store ptr %60, ptr %58, align 8
  store i8 %57, ptr %59, align 1
  %61 = load i32, ptr %9, align 4
  %62 = lshr i32 %61, 6
  %63 = and i32 %62, 63
  %64 = or i32 128, %63
  %65 = trunc i32 %64 to i8
  %66 = load ptr, ptr %7, align 8
  %67 = load ptr, ptr %66, align 8
  %68 = getelementptr inbounds i8, ptr %67, i32 1
  store ptr %68, ptr %66, align 8
  store i8 %65, ptr %67, align 1
  %69 = load i32, ptr %9, align 4
  %70 = and i32 %69, 63
  %71 = or i32 128, %70
  %72 = trunc i32 %71 to i8
  %73 = load ptr, ptr %7, align 8
  %74 = load ptr, ptr %73, align 8
  %75 = getelementptr inbounds i8, ptr %74, i32 1
  store ptr %75, ptr %73, align 8
  store i8 %72, ptr %74, align 1
  store i8 3, ptr %5, align 1
  br label %118

76:                                               ; preds = %43
  %77 = load i32, ptr %9, align 4
  %78 = icmp ult i32 %77, 1114112
  br i1 %78, label %79, label %117

79:                                               ; preds = %76
  %80 = load ptr, ptr %7, align 8
  %81 = load ptr, ptr %80, align 8
  %82 = getelementptr inbounds i8, ptr %81, i64 4
  %83 = load ptr, ptr %8, align 8
  %84 = icmp ugt ptr %82, %83
  br i1 %84, label %85, label %86

85:                                               ; preds = %79
  store i8 -2, ptr %5, align 1
  br label %118

86:                                               ; preds = %79
  %87 = load i32, ptr %9, align 4
  %88 = lshr i32 %87, 18
  %89 = or i32 240, %88
  %90 = trunc i32 %89 to i8
  %91 = load ptr, ptr %7, align 8
  %92 = load ptr, ptr %91, align 8
  %93 = getelementptr inbounds i8, ptr %92, i32 1
  store ptr %93, ptr %91, align 8
  store i8 %90, ptr %92, align 1
  %94 = load i32, ptr %9, align 4
  %95 = lshr i32 %94, 12
  %96 = and i32 %95, 63
  %97 = or i32 128, %96
  %98 = trunc i32 %97 to i8
  %99 = load ptr, ptr %7, align 8
  %100 = load ptr, ptr %99, align 8
  %101 = getelementptr inbounds i8, ptr %100, i32 1
  store ptr %101, ptr %99, align 8
  store i8 %98, ptr %100, align 1
  %102 = load i32, ptr %9, align 4
  %103 = lshr i32 %102, 6
  %104 = and i32 %103, 63
  %105 = or i32 128, %104
  %106 = trunc i32 %105 to i8
  %107 = load ptr, ptr %7, align 8
  %108 = load ptr, ptr %107, align 8
  %109 = getelementptr inbounds i8, ptr %108, i32 1
  store ptr %109, ptr %107, align 8
  store i8 %106, ptr %108, align 1
  %110 = load i32, ptr %9, align 4
  %111 = and i32 %110, 63
  %112 = or i32 128, %111
  %113 = trunc i32 %112 to i8
  %114 = load ptr, ptr %7, align 8
  %115 = load ptr, ptr %114, align 8
  %116 = getelementptr inbounds i8, ptr %115, i32 1
  store ptr %116, ptr %114, align 8
  store i8 %113, ptr %115, align 1
  store i8 4, ptr %5, align 1
  br label %118

117:                                              ; preds = %76
  store i8 -1, ptr %5, align 1
  br label %118

118:                                              ; preds = %117, %86, %85, %53, %52, %28, %27, %12
  %119 = load i8, ptr %5, align 1
  ret i8 %119
}