; Function Attrs: mustprogress nofree norecurse nosync nounwind willreturn memory(write, argmem: readwrite, inaccessiblemem: none) uwtable
define hidden noundef signext i8 @lxb_encoding_encode_utf_8_single(ptr nocapture readnone %0, ptr nocapture noundef %1, ptr noundef readnone %2, i32 noundef %3) local_unnamed_addr #4 {
  %5 = icmp ult i32 %3, 128
  br i1 %5, label %6, label %10

6:                                                ; preds = %4
  %7 = trunc i32 %3 to i8
  %8 = load ptr, ptr %1, align 8
  %9 = getelementptr inbounds i8, ptr %8, i64 1
  store ptr %9, ptr %1, align 8
  store i8 %7, ptr %8, align 1
  br label %76

10:                                               ; preds = %4
  %11 = icmp ult i32 %3, 2048
  br i1 %11, label %12, label %26

12:                                               ; preds = %10
  %13 = load ptr, ptr %1, align 8
  %14 = getelementptr inbounds i8, ptr %13, i64 2
  %15 = icmp ugt ptr %14, %2
  br i1 %15, label %76, label %16

16:                                               ; preds = %12
  %17 = lshr i32 %3, 6
  %18 = trunc i32 %17 to i8
  %19 = or disjoint i8 %18, -64
  %20 = getelementptr inbounds i8, ptr %13, i64 1
  store ptr %20, ptr %1, align 8
  store i8 %19, ptr %13, align 1
  %21 = trunc i32 %3 to i8
  %22 = and i8 %21, 63
  %23 = or disjoint i8 %22, -128
  %24 = load ptr, ptr %1, align 8
  %25 = getelementptr inbounds i8, ptr %24, i64 1
  store ptr %25, ptr %1, align 8
  store i8 %23, ptr %24, align 1
  br label %76

26:                                               ; preds = %10
  %27 = icmp ult i32 %3, 65536
  br i1 %27, label %28, label %48

28:                                               ; preds = %26
  %29 = load ptr, ptr %1, align 8
  %30 = getelementptr inbounds i8, ptr %29, i64 3
  %31 = icmp ugt ptr %30, %2
  br i1 %31, label %76, label %32

32:                                               ; preds = %28
  %33 = lshr i32 %3, 12
  %34 = trunc i32 %33 to i8
  %35 = or disjoint i8 %34, -32
  %36 = getelementptr inbounds i8, ptr %29, i64 1
  store ptr %36, ptr %1, align 8
  store i8 %35, ptr %29, align 1
  %37 = lshr i32 %3, 6
  %38 = trunc i32 %37 to i8
  %39 = and i8 %38, 63
  %40 = or disjoint i8 %39, -128
  %41 = load ptr, ptr %1, align 8
  %42 = getelementptr inbounds i8, ptr %41, i64 1
  store ptr %42, ptr %1, align 8
  store i8 %40, ptr %41, align 1
  %43 = trunc i32 %3 to i8
  %44 = and i8 %43, 63
  %45 = or disjoint i8 %44, -128
  %46 = load ptr, ptr %1, align 8
  %47 = getelementptr inbounds i8, ptr %46, i64 1
  store ptr %47, ptr %1, align 8
  store i8 %45, ptr %46, align 1
  br label %76

48:                                               ; preds = %26
  %49 = icmp ult i32 %3, 1114112
  br i1 %49, label %50, label %76

50:                                               ; preds = %48
  %51 = load ptr, ptr %1, align 8
  %52 = getelementptr inbounds i8, ptr %51, i64 4
  %53 = icmp ugt ptr %52, %2
  br i1 %53, label %76, label %54

54:                                               ; preds = %50
  %55 = lshr i32 %3, 18
  %56 = trunc i32 %55 to i8
  %57 = or disjoint i8 %56, -16
  %58 = getelementptr inbounds i8, ptr %51, i64 1
  store ptr %58, ptr %1, align 8
  store i8 %57, ptr %51, align 1
  %59 = lshr i32 %3, 12
  %60 = trunc i32 %59 to i8
  %61 = and i8 %60, 63
  %62 = or disjoint i8 %61, -128
  %63 = load ptr, ptr %1, align 8
  %64 = getelementptr inbounds i8, ptr %63, i64 1
  store ptr %64, ptr %1, align 8
  store i8 %62, ptr %63, align 1
  %65 = lshr i32 %3, 6
  %66 = trunc i32 %65 to i8
  %67 = and i8 %66, 63
  %68 = or disjoint i8 %67, -128
  %69 = load ptr, ptr %1, align 8
  %70 = getelementptr inbounds i8, ptr %69, i64 1
  store ptr %70, ptr %1, align 8
  store i8 %68, ptr %69, align 1
  %71 = trunc i32 %3 to i8
  %72 = and i8 %71, 63
  %73 = or disjoint i8 %72, -128
  %74 = load ptr, ptr %1, align 8
  %75 = getelementptr inbounds i8, ptr %74, i64 1
  store ptr %75, ptr %1, align 8
  store i8 %73, ptr %74, align 1
  br label %76

76:                                               ; preds = %48, %50, %28, %12, %54, %32, %16, %6
  %.0 = phi i8 [ 1, %6 ], [ 2, %16 ], [ 3, %32 ], [ 4, %54 ], [ -2, %12 ], [ -2, %28 ], [ -2, %50 ], [ -1, %48 ]
  ret i8 %.0
}